target datalayout = "e-m:e-p270:32:32-p271:32:32-p272:64:64-i64:64-i128:128-f80:128-n8:16:32:64-S128"
target triple = "x86_64-pc-linux-gnu"

%struct.GetBitContext = type { ptr, ptr, i32, i32, i32 }

; Function Attrs: alwaysinline nounwind willreturn memory(none) uwtable
define internal i32 @av_bswap32(i32 noundef %0) #6 {
  %2 = alloca i32, align 4
  store i32 %0, ptr %2, align 4, !tbaa !38
  %3 = load i32, ptr %2, align 4, !tbaa !38
  %4 = shl i32 %3, 8
  %5 = and i32 %4, 65280
  %6 = load i32, ptr %2, align 4, !tbaa !38
  %7 = lshr i32 %6, 8
  %8 = and i32 %7, 255
  %9 = or i32 %5, %8
  %10 = shl i32 %9, 16
  %11 = load i32, ptr %2, align 4, !tbaa !38
  %12 = lshr i32 %11, 16
  %13 = shl i32 %12, 8
  %14 = and i32 %13, 65280
  %15 = load i32, ptr %2, align 4, !tbaa !38
  %16 = lshr i32 %15, 16
  %17 = lshr i32 %16, 8
  %18 = and i32 %17, 255
  %19 = or i32 %14, %18
  %20 = or i32 %10, %19
  ret i32 %20
}

; Function Attrs: inlinehint nounwind uwtable
define internal i32 @get_bits(ptr noundef %0, i32 noundef %1) #5 {
  %3 = alloca ptr, align 8
  %4 = alloca i32, align 4
  %5 = alloca i32, align 4
  %6 = alloca i32, align 4
  %7 = alloca i32, align 4
  %8 = alloca i32, align 4
  store ptr %0, ptr %3, align 8, !tbaa !51
  store i32 %1, ptr %4, align 4, !tbaa !38
  call void @llvm.lifetime.start.p0(i64 4, ptr %5) #9
  call void @llvm.lifetime.start.p0(i64 4, ptr %6) #9
  %9 = load ptr, ptr %3, align 8, !tbaa !51
  %10 = getelementptr inbounds nuw %struct.GetBitContext, ptr %9, i32 0, i32 2
  %11 = load i32, ptr %10, align 8, !tbaa !99
  store i32 %11, ptr %6, align 4, !tbaa !38
  call void @llvm.lifetime.start.p0(i64 4, ptr %7) #9
  call void @llvm.lifetime.start.p0(i64 4, ptr %8) #9
  %12 = load ptr, ptr %3, align 8, !tbaa !51
  %13 = getelementptr inbounds nuw %struct.GetBitContext, ptr %12, i32 0, i32 4
  %14 = load i32, ptr %13, align 8, !tbaa !97
  store i32 %14, ptr %8, align 4, !tbaa !38
  %15 = load ptr, ptr %3, align 8, !tbaa !51
  %16 = getelementptr inbounds nuw %struct.GetBitContext, ptr %15, i32 0, i32 0
  %17 = load ptr, ptr %16, align 8, !tbaa !94
  %18 = load i32, ptr %6, align 4, !tbaa !38
  %19 = lshr i32 %18, 3
  %20 = zext i32 %19 to i64
  %21 = getelementptr inbounds nuw i8, ptr %17, i64 %20
  %22 = load i32, ptr %21, align 1, !tbaa !78
  %23 = call i32 @av_bswap32(i32 noundef %22) #10
  %24 = load i32, ptr %6, align 4, !tbaa !38
  %25 = and i32 %24, 7
  %26 = shl i32 %23, %25
  %27 = lshr i32 %26, 0
  store i32 %27, ptr %7, align 4, !tbaa !38
  %28 = load i32, ptr %7, align 4, !tbaa !38
  %29 = load i32, ptr %4, align 4, !tbaa !38
  %30 = sub nsw i32 32, %29
  %31 = lshr i32 %28, %30
  store i32 %31, ptr %5, align 4, !tbaa !38
  %32 = load i32, ptr %8, align 4, !tbaa !38
  %33 = load i32, ptr %6, align 4, !tbaa !38
  %34 = load i32, ptr %4, align 4, !tbaa !38
  %35 = add i32 %33, %34
  %36 = icmp ugt i32 %32, %35
  br i1 %36, label %37, label %41

37:                                               ; preds = %2
  %38 = load i32, ptr %6, align 4, !tbaa !38
  %39 = load i32, ptr %4, align 4, !tbaa !38
  %40 = add i32 %38, %39
  br label %43

41:                                               ; preds = %2
  %42 = load i32, ptr %8, align 4, !tbaa !38
  br label %43

43:                                               ; preds = %41, %37
  %44 = phi i32 [ %40, %37 ], [ %42, %41 ]
  store i32 %44, ptr %6, align 4, !tbaa !38
  %45 = load i32, ptr %6, align 4, !tbaa !38
  %46 = load ptr, ptr %3, align 8, !tbaa !51
  %47 = getelementptr inbounds nuw %struct.GetBitContext, ptr %46, i32 0, i32 2
  store i32 %45, ptr %47, align 8, !tbaa !99
  %48 = load i32, ptr %5, align 4, !tbaa !38
  call void @llvm.lifetime.end.p0(i64 4, ptr %8) #9
  call void @llvm.lifetime.end.p0(i64 4, ptr %7) #9
  call void @llvm.lifetime.end.p0(i64 4, ptr %6) #9
  call void @llvm.lifetime.end.p0(i64 4, ptr %5) #9
  ret i32 %48
}

; Function Attrs: inlinehint nounwind uwtable
define internal i32 @get_bits1(ptr noundef %0) #5 {
  %2 = alloca ptr, align 8
  %3 = alloca i32, align 4
  %4 = alloca i8, align 1
  store ptr %0, ptr %2, align 8, !tbaa !51
  call void @llvm.lifetime.start.p0(i64 4, ptr %3) #9
  %5 = load ptr, ptr %2, align 8, !tbaa !51
  %6 = getelementptr inbounds nuw %struct.GetBitContext, ptr %5, i32 0, i32 2
  %7 = load i32, ptr %6, align 8, !tbaa !99
  store i32 %7, ptr %3, align 4, !tbaa !38
  call void @llvm.lifetime.start.p0(i64 1, ptr %4) #9
  %8 = load ptr, ptr %2, align 8, !tbaa !51
  %9 = getelementptr inbounds nuw %struct.GetBitContext, ptr %8, i32 0, i32 0
  %10 = load ptr, ptr %9, align 8, !tbaa !94
  %11 = load i32, ptr %3, align 4, !tbaa !38
  %12 = lshr i32 %11, 3
  %13 = zext i32 %12 to i64
  %14 = getelementptr inbounds nuw i8, ptr %10, i64 %13
  %15 = load i8, ptr %14, align 1, !tbaa !78
  store i8 %15, ptr %4, align 1, !tbaa !78
  %16 = load i32, ptr %3, align 4, !tbaa !38
  %17 = and i32 %16, 7
  %18 = load i8, ptr %4, align 1, !tbaa !78
  %19 = zext i8 %18 to i32
  %20 = shl i32 %19, %17
  %21 = trunc i32 %20 to i8
  store i8 %21, ptr %4, align 1, !tbaa !78
  %22 = load i8, ptr %4, align 1, !tbaa !78
  %23 = zext i8 %22 to i32
  %24 = ashr i32 %23, 7
  %25 = trunc i32 %24 to i8
  store i8 %25, ptr %4, align 1, !tbaa !78
  %26 = load ptr, ptr %2, align 8, !tbaa !51
  %27 = getelementptr inbounds nuw %struct.GetBitContext, ptr %26, i32 0, i32 2
  %28 = load i32, ptr %27, align 8, !tbaa !99
  %29 = load ptr, ptr %2, align 8, !tbaa !51
  %30 = getelementptr inbounds nuw %struct.GetBitContext, ptr %29, i32 0, i32 4
  %31 = load i32, ptr %30, align 8, !tbaa !97
  %32 = icmp slt i32 %28, %31
  br i1 %32, label %33, label %36

33:                                               ; preds = %1
  %34 = load i32, ptr %3, align 4, !tbaa !38
  %35 = add i32 %34, 1
  store i32 %35, ptr %3, align 4, !tbaa !38
  br label %36

36:                                               ; preds = %33, %1
  %37 = load i32, ptr %3, align 4, !tbaa !38
  %38 = load ptr, ptr %2, align 8, !tbaa !51
  %39 = getelementptr inbounds nuw %struct.GetBitContext, ptr %38, i32 0, i32 2
  store i32 %37, ptr %39, align 8, !tbaa !99
  %40 = load i8, ptr %4, align 1, !tbaa !78
  %41 = zext i8 %40 to i32
  call void @llvm.lifetime.end.p0(i64 1, ptr %4) #9
  call void @llvm.lifetime.end.p0(i64 4, ptr %3) #9
  ret i32 %41
}

; Function Attrs: inlinehint nounwind uwtable
define internal i32 @get_bits_long(ptr noundef %0, i32 noundef %1) #5 {
  %3 = alloca i32, align 4
  %4 = alloca ptr, align 8
  %5 = alloca i32, align 4
  %6 = alloca i32, align 4
  store ptr %0, ptr %4, align 8, !tbaa !51
  store i32 %1, ptr %5, align 4, !tbaa !38
  %7 = load i32, ptr %5, align 4, !tbaa !38
  %8 = icmp ne i32 %7, 0
  br i1 %8, label %10, label %9

9:                                                ; preds = %2
  store i32 0, ptr %3, align 4
  br label %29

10:                                               ; preds = %2
  %11 = load i32, ptr %5, align 4, !tbaa !38
  %12 = icmp sle i32 %11, 25
  br i1 %12, label %13, label %17

13:                                               ; preds = %10
  %14 = load ptr, ptr %4, align 8, !tbaa !51
  %15 = load i32, ptr %5, align 4, !tbaa !38
  %16 = call i32 @get_bits(ptr noundef %14, i32 noundef %15)
  store i32 %16, ptr %3, align 4
  br label %29

17:                                               ; preds = %10
  call void @llvm.lifetime.start.p0(i64 4, ptr %6) #9
  %18 = load ptr, ptr %4, align 8, !tbaa !51
  %19 = call i32 @get_bits(ptr noundef %18, i32 noundef 16)
  %20 = load i32, ptr %5, align 4, !tbaa !38
  %21 = sub nsw i32 %20, 16
  %22 = shl i32 %19, %21
  store i32 %22, ptr %6, align 4, !tbaa !38
  %23 = load i32, ptr %6, align 4, !tbaa !38
  %24 = load ptr, ptr %4, align 8, !tbaa !51
  %25 = load i32, ptr %5, align 4, !tbaa !38
  %26 = sub nsw i32 %25, 16
  %27 = call i32 @get_bits(ptr noundef %24, i32 noundef %26)
  %28 = or i32 %23, %27
  store i32 %28, ptr %3, align 4
  call void @llvm.lifetime.end.p0(i64 4, ptr %6) #9
  br label %29

29:                                               ; preds = %17, %13, %9
  %30 = load i32, ptr %3, align 4
  ret i32 %30
}

; Function Attrs: inlinehint nounwind uwtable
define internal i32 @mpc8_dec_base(ptr noundef %0, i32 noundef %1, i32 noundef %2) #5 {
  %4 = alloca ptr, align 8
  %5 = alloca i32, align 4
  %6 = alloca i32, align 4
  %7 = alloca i32, align 4
  %8 = alloca i32, align 4
  store ptr %0, ptr %4, align 8, !tbaa !51
  store i32 %1, ptr %5, align 4, !tbaa !38
  store i32 %2, ptr %6, align 4, !tbaa !38
  call void @llvm.lifetime.start.p0(i64 4, ptr %7) #9
  %9 = load i32, ptr %5, align 4, !tbaa !38
  %10 = sub nsw i32 %9, 1
  %11 = sext i32 %10 to i64
  %12 = getelementptr inbounds [16 x [33 x i8]], ptr @mpc8_cnk_len, i64 0, i64 %11
  %13 = load i32, ptr %6, align 4, !tbaa !38
  %14 = sub nsw i32 %13, 1
  %15 = sext i32 %14 to i64
  %16 = getelementptr inbounds [33 x i8], ptr %12, i64 0, i64 %15
  %17 = load i8, ptr %16, align 1, !tbaa !78
  %18 = zext i8 %17 to i32
  %19 = sub nsw i32 %18, 1
  store i32 %19, ptr %7, align 4, !tbaa !38
  call void @llvm.lifetime.start.p0(i64 4, ptr %8) #9
  %20 = load i32, ptr %7, align 4, !tbaa !38
  %21 = icmp ne i32 %20, 0
  br i1 %21, label %22, label %26

22:                                               ; preds = %3
  %23 = load ptr, ptr %4, align 8, !tbaa !51
  %24 = load i32, ptr %7, align 4, !tbaa !38
  %25 = call i32 @get_bits_long(ptr noundef %23, i32 noundef %24)
  br label %27

26:                                               ; preds = %3
  br label %27

27:                                               ; preds = %26, %22
  %28 = phi i32 [ %25, %22 ], [ 0, %26 ]
  store i32 %28, ptr %8, align 4, !tbaa !38
  %29 = load i32, ptr %8, align 4, !tbaa !38
  %30 = load i32, ptr %5, align 4, !tbaa !38
  %31 = sub nsw i32 %30, 1
  %32 = sext i32 %31 to i64
  %33 = getelementptr inbounds [16 x [33 x i32]], ptr @mpc8_cnk_lost, i64 0, i64 %32
  %34 = load i32, ptr %6, align 4, !tbaa !38
  %35 = sub nsw i32 %34, 1
  %36 = sext i32 %35 to i64
  %37 = getelementptr inbounds [33 x i32], ptr %33, i64 0, i64 %36
  %38 = load i32, ptr %37, align 4, !tbaa !38
  %39 = icmp uge i32 %29, %38
  br i1 %39, label %40, label %56

40:                                               ; preds = %27
  %41 = load i32, ptr %8, align 4, !tbaa !38
  %42 = shl i32 %41, 1
  %43 = load ptr, ptr %4, align 8, !tbaa !51
  %44 = call i32 @get_bits1(ptr noundef %43)
  %45 = or i32 %42, %44
  %46 = load i32, ptr %5, align 4, !tbaa !38
  %47 = sub nsw i32 %46, 1
  %48 = sext i32 %47 to i64
  %49 = getelementptr inbounds [16 x [33 x i32]], ptr @mpc8_cnk_lost, i64 0, i64 %48
  %50 = load i32, ptr %6, align 4, !tbaa !38
  %51 = sub nsw i32 %50, 1
  %52 = sext i32 %51 to i64
  %53 = getelementptr inbounds [33 x i32], ptr %49, i64 0, i64 %52
  %54 = load i32, ptr %53, align 4, !tbaa !38
  %55 = sub i32 %45, %54
  store i32 %55, ptr %8, align 4, !tbaa !38
  br label %56

56:                                               ; preds = %40, %27
  %57 = load i32, ptr %8, align 4, !tbaa !38
  call void @llvm.lifetime.end.p0(i64 4, ptr %8) #9
  call void @llvm.lifetime.end.p0(i64 4, ptr %7) #9
  ret i32 %57
}

; Function Attrs: inlinehint nounwind uwtable
define internal i32 @mpc8_dec_enum(ptr noundef %0, i32 noundef %1, i32 noundef %2) #5 {
  %4 = alloca ptr, align 8
  %5 = alloca i32, align 4
  %6 = alloca i32, align 4
  %7 = alloca i32, align 4
  %8 = alloca ptr, align 8
  %9 = alloca i32, align 4
  store ptr %0, ptr %4, align 8, !tbaa !51
  store i32 %1, ptr %5, align 4, !tbaa !38
  store i32 %2, ptr %6, align 4, !tbaa !38
  call void @llvm.lifetime.start.p0(i64 4, ptr %7) #9
  store i32 0, ptr %7, align 4, !tbaa !38
  call void @llvm.lifetime.start.p0(i64 8, ptr %8) #9
  %10 = load i32, ptr %5, align 4, !tbaa !38
  %11 = sub nsw i32 %10, 1
  %12 = sext i32 %11 to i64
  %13 = getelementptr inbounds [16 x [32 x i32]], ptr @mpc8_cnk, i64 0, i64 %12
  %14 = getelementptr inbounds [32 x i32], ptr %13, i64 0, i64 0
  store ptr %14, ptr %8, align 8, !tbaa !44
  call void @llvm.lifetime.start.p0(i64 4, ptr %9) #9
  %15 = load ptr, ptr %4, align 8, !tbaa !51
  %16 = load i32, ptr %5, align 4, !tbaa !38
  %17 = load i32, ptr %6, align 4, !tbaa !38
  %18 = call i32 @mpc8_dec_base(ptr noundef %15, i32 noundef %16, i32 noundef %17)
  store i32 %18, ptr %9, align 4, !tbaa !38
  br label %19

19:                                               ; preds = %46, %3
  %20 = load i32, ptr %6, align 4, !tbaa !38
  %21 = add nsw i32 %20, -1
  store i32 %21, ptr %6, align 4, !tbaa !38
  %22 = load i32, ptr %9, align 4, !tbaa !38
  %23 = load ptr, ptr %8, align 8, !tbaa !44
  %24 = load i32, ptr %6, align 4, !tbaa !38
  %25 = sext i32 %24 to i64
  %26 = getelementptr inbounds i32, ptr %23, i64 %25
  %27 = load i32, ptr %26, align 4, !tbaa !38
  %28 = icmp uge i32 %22, %27
  br i1 %28, label %29, label %45

29:                                               ; preds = %19
  %30 = load i32, ptr %6, align 4, !tbaa !38
  %31 = shl i32 1, %30
  %32 = load i32, ptr %7, align 4, !tbaa !38
  %33 = or i32 %32, %31
  store i32 %33, ptr %7, align 4, !tbaa !38
  %34 = load ptr, ptr %8, align 8, !tbaa !44
  %35 = load i32, ptr %6, align 4, !tbaa !38
  %36 = sext i32 %35 to i64
  %37 = getelementptr inbounds i32, ptr %34, i64 %36
  %38 = load i32, ptr %37, align 4, !tbaa !38
  %39 = load i32, ptr %9, align 4, !tbaa !38
  %40 = sub i32 %39, %38
  store i32 %40, ptr %9, align 4, !tbaa !38
  %41 = load ptr, ptr %8, align 8, !tbaa !44
  %42 = getelementptr inbounds i32, ptr %41, i64 -32
  store ptr %42, ptr %8, align 8, !tbaa !44
  %43 = load i32, ptr %5, align 4, !tbaa !38
  %44 = add nsw i32 %43, -1
  store i32 %44, ptr %5, align 4, !tbaa !38
  br label %45

45:                                               ; preds = %29, %19
  br label %46

46:                                               ; preds = %45
  %47 = load i32, ptr %5, align 4, !tbaa !38
  %48 = icmp sgt i32 %47, 0
  br i1 %48, label %19, label %49, !llvm.loop !111

49:                                               ; preds = %46
  %50 = load i32, ptr %7, align 4, !tbaa !38
  call void @llvm.lifetime.end.p0(i64 4, ptr %9) #9
  call void @llvm.lifetime.end.p0(i64 8, ptr %8) #9
  call void @llvm.lifetime.end.p0(i64 4, ptr %7) #9
  ret i32 %50
}

; Function Attrs: nounwind uwtable
define internal i32 @mpc8_get_mask(ptr noundef %0, i32 noundef %1, i32 noundef %2) #1 {
  %4 = alloca ptr, align 8
  %5 = alloca i32, align 4
  %6 = alloca i32, align 4
  %7 = alloca i32, align 4
  store ptr %0, ptr %4, align 8, !tbaa !51
  store i32 %1, ptr %5, align 4, !tbaa !38
  store i32 %2, ptr %6, align 4, !tbaa !38
  call void @llvm.lifetime.start.p0(i64 4, ptr %7) #9
  store i32 0, ptr %7, align 4, !tbaa !38
  %8 = load i32, ptr %6, align 4, !tbaa !38
  %9 = icmp ne i32 %8, 0
  br i1 %9, label %10, label %31

10:                                               ; preds = %3
  %11 = load i32, ptr %6, align 4, !tbaa !38
  %12 = load i32, ptr %5, align 4, !tbaa !38
  %13 = icmp ne i32 %11, %12
  br i1 %13, label %14, label %31

14:                                               ; preds = %10
  %15 = load ptr, ptr %4, align 8, !tbaa !51
  %16 = load i32, ptr %6, align 4, !tbaa !38
  %17 = load i32, ptr %5, align 4, !tbaa !38
  %18 = load i32, ptr %6, align 4, !tbaa !38
  %19 = sub nsw i32 %17, %18
  %20 = icmp sgt i32 %16, %19
  br i1 %20, label %21, label %25

21:                                               ; preds = %14
  %22 = load i32, ptr %5, align 4, !tbaa !38
  %23 = load i32, ptr %6, align 4, !tbaa !38
  %24 = sub nsw i32 %22, %23
  br label %27

25:                                               ; preds = %14
  %26 = load i32, ptr %6, align 4, !tbaa !38
  br label %27

27:                                               ; preds = %25, %21
  %28 = phi i32 [ %24, %21 ], [ %26, %25 ]
  %29 = load i32, ptr %5, align 4, !tbaa !38
  %30 = call i32 @mpc8_dec_enum(ptr noundef %15, i32 noundef %28, i32 noundef %29)
  store i32 %30, ptr %7, align 4, !tbaa !38
  br label %31

31:                                               ; preds = %27, %10, %3
  %32 = load i32, ptr %6, align 4, !tbaa !38
  %33 = shl i32 %32, 1
  %34 = load i32, ptr %5, align 4, !tbaa !38
  %35 = icmp sgt i32 %33, %34
  br i1 %35, label %36, label %39

36:                                               ; preds = %31
  %37 = load i32, ptr %7, align 4, !tbaa !38
  %38 = xor i32 %37, -1
  store i32 %38, ptr %7, align 4, !tbaa !38
  br label %39

39:                                               ; preds = %36, %31
  %40 = load i32, ptr %7, align 4, !tbaa !38
  call void @llvm.lifetime.end.p0(i64 4, ptr %7) #9
  ret i32 %40
}