; Function Attrs: nofree norecurse nosync nounwind memory(read, argmem: readwrite, inaccessiblemem: none) uwtable
define internal fastcc i32 @mpc8_get_mask(ptr noundef nonnull captures(none) %0, i32 noundef %1, i32 noundef %2) unnamed_addr #6 {
  %.not = icmp eq i32 %2, 0
  %.not16 = icmp eq i32 %2, %1
  %or.cond = or i1 %.not, %.not16
  br i1 %or.cond, label %mpc8_dec_enum.exit, label %4

4:                                                ; preds = %3
  %5 = sub nsw i32 %1, %2
  %6 = tail call i32 @llvm.smin.i32(i32 %2, i32 %5)
  %7 = add nsw i32 %6, -1
  %8 = sext i32 %7 to i64
  %9 = getelementptr inbounds [16 x [32 x i32]], ptr @mpc8_cnk, i64 0, i64 %8
  %10 = add nsw i32 %1, -1
  %11 = sext i32 %10 to i64
  %12 = getelementptr inbounds [16 x [33 x i8]], ptr @mpc8_cnk_len, i64 0, i64 %8, i64 %11
  %13 = load i8, ptr %12, align 1, !tbaa !29
  %14 = zext i8 %13 to i32
  %15 = add nsw i32 %14, -1
  %.not.i.i = icmp eq i32 %15, 0
  br i1 %.not.i.i, label %get_bits_long.exit.i.i, label %16

16:                                               ; preds = %4
  %17 = icmp ult i8 %13, 27
  %18 = getelementptr inbounds nuw i8, ptr %0, i64 16
  %19 = load i32, ptr %18, align 8, !tbaa !48
  %20 = getelementptr inbounds nuw i8, ptr %0, i64 24
  %21 = load i32, ptr %20, align 8, !tbaa !46
  %22 = load ptr, ptr %0, align 8, !tbaa !43
  %23 = lshr i32 %19, 3
  %24 = zext nneg i32 %23 to i64
  %25 = getelementptr inbounds nuw i8, ptr %22, i64 %24
  %26 = load i32, ptr %25, align 1, !tbaa !29
  %27 = tail call i32 @llvm.bswap.i32(i32 %26)
  %28 = and i32 %19, 7
  %29 = shl i32 %27, %28
  br i1 %17, label %30, label %35

30:                                               ; preds = %16
  %31 = sub nuw nsw i32 33, %14
  %32 = lshr i32 %29, %31
  %33 = add i32 %19, %15
  %34 = tail call i32 @llvm.umin.i32(i32 %21, i32 %33)
  store i32 %34, ptr %18, align 8, !tbaa !48
  br label %get_bits_long.exit.i.i

35:                                               ; preds = %16
  %36 = lshr i32 %29, 16
  %37 = add i32 %19, 16
  %38 = tail call i32 @llvm.umin.i32(i32 %21, i32 %37)
  store i32 %38, ptr %18, align 8, !tbaa !48
  %39 = add nsw i32 %14, -17
  %40 = shl i32 %36, %39
  %41 = lshr i32 %38, 3
  %42 = zext nneg i32 %41 to i64
  %43 = getelementptr inbounds nuw i8, ptr %22, i64 %42
  %44 = load i32, ptr %43, align 1, !tbaa !29
  %45 = tail call i32 @llvm.bswap.i32(i32 %44)
  %46 = and i32 %38, 7
  %47 = shl i32 %45, %46
  %48 = sub nsw i32 49, %14
  %49 = lshr i32 %47, %48
  %50 = add i32 %38, %39
  %51 = tail call i32 @llvm.umin.i32(i32 %21, i32 %50)
  store i32 %51, ptr %18, align 8, !tbaa !48
  %52 = or i32 %49, %40
  br label %get_bits_long.exit.i.i

get_bits_long.exit.i.i:                           ; preds = %35, %30, %4
  %53 = phi i32 [ 0, %4 ], [ %32, %30 ], [ %52, %35 ]
  %54 = getelementptr inbounds [16 x [33 x i32]], ptr @mpc8_cnk_lost, i64 0, i64 %8, i64 %11
  %55 = load i32, ptr %54, align 4, !tbaa !49
  %.not14.i.i = icmp ult i32 %53, %55
  br i1 %.not14.i.i, label %mpc8_dec_base.exit.i, label %56

56:                                               ; preds = %get_bits_long.exit.i.i
  %57 = shl i32 %53, 1
  %58 = getelementptr inbounds nuw i8, ptr %0, i64 16
  %59 = load i32, ptr %58, align 8, !tbaa !48
  %60 = load ptr, ptr %0, align 8, !tbaa !43
  %61 = lshr i32 %59, 3
  %62 = zext nneg i32 %61 to i64
  %63 = getelementptr inbounds nuw i8, ptr %60, i64 %62
  %64 = load i8, ptr %63, align 1, !tbaa !29
  %65 = getelementptr inbounds nuw i8, ptr %0, i64 24
  %66 = load i32, ptr %65, align 8, !tbaa !46
  %67 = icmp slt i32 %59, %66
  %68 = zext i1 %67 to i32
  %spec.select.i.i.i = add i32 %59, %68
  %69 = zext i8 %64 to i32
  %70 = and i32 %59, 7
  %71 = shl nuw nsw i32 %69, %70
  %72 = lshr i32 %71, 7
  store i32 %spec.select.i.i.i, ptr %58, align 8, !tbaa !48
  %73 = and i32 %72, 1
  %74 = sub i32 %57, %55
  %75 = add i32 %74, %73
  br label %mpc8_dec_base.exit.i

mpc8_dec_base.exit.i:                             ; preds = %56, %get_bits_long.exit.i.i
  %.0.i.i = phi i32 [ %75, %56 ], [ %53, %get_bits_long.exit.i.i ]
  %76 = sext i32 %1 to i64
  br label %77

77:                                               ; preds = %87, %mpc8_dec_base.exit.i
  %indvars.iv.i = phi i64 [ %indvars.iv.next.i, %87 ], [ %76, %mpc8_dec_base.exit.i ]
  %.021.i = phi i32 [ %.122.i, %87 ], [ %6, %mpc8_dec_base.exit.i ]
  %.018.i = phi i32 [ %.119.i, %87 ], [ 0, %mpc8_dec_base.exit.i ]
  %.016.i = phi ptr [ %.117.i, %87 ], [ %9, %mpc8_dec_base.exit.i ]
  %.0.i = phi i32 [ %.1.i, %87 ], [ %.0.i.i, %mpc8_dec_base.exit.i ]
  %indvars.iv.next.i = add nsw i64 %indvars.iv.i, -1
  %78 = getelementptr inbounds i32, ptr %.016.i, i64 %indvars.iv.next.i
  %79 = load i32, ptr %78, align 4, !tbaa !49
  %.not.i = icmp ult i32 %.0.i, %79
  br i1 %.not.i, label %87, label %80

80:                                               ; preds = %77
  %81 = trunc nsw i64 %indvars.iv.next.i to i32
  %82 = shl nuw i32 1, %81
  %83 = or i32 %82, %.018.i
  %84 = sub nuw i32 %.0.i, %79
  %85 = getelementptr inbounds i8, ptr %.016.i, i64 -128
  %86 = add nsw i32 %.021.i, -1
  br label %87

87:                                               ; preds = %80, %77
  %.122.i = phi i32 [ %86, %80 ], [ %.021.i, %77 ]
  %.119.i = phi i32 [ %83, %80 ], [ %.018.i, %77 ]
  %.117.i = phi ptr [ %85, %80 ], [ %.016.i, %77 ]
  %.1.i = phi i32 [ %84, %80 ], [ %.0.i, %77 ]
  %88 = icmp sgt i32 %.122.i, 0
  br i1 %88, label %77, label %mpc8_dec_enum.exit, !llvm.loop !70

mpc8_dec_enum.exit:                               ; preds = %87, %3
  %.0 = phi i32 [ 0, %3 ], [ %.119.i, %87 ]
  %89 = shl i32 %2, 1
  %90 = icmp sgt i32 %89, %1
  %91 = sext i1 %90 to i32
  %spec.select = xor i32 %.0, %91
  ret i32 %spec.select
}